target datalayout = "e-m:e-p270:32:32-p271:32:32-p272:64:64-i64:64-i128:128-f80:128-n8:16:32:64-S128"
target triple = "x86_64-pc-linux-gnu"

%"struct.std::pair.6" = type { i32, i32 }
%"struct.std::array.24" = type { [8 x i32] }
%"struct.open_spiel::tiny_bridge::TinyBridgeAuctionState::AuctionState" = type { i64, i32, i32, i32 }

; Function Attrs: mustprogress nounwind uwtable
define linkonce_odr void @_ZSt9__fill_a1IPN10open_spiel11tiny_bridge4SeatES2_EN9__gnu_cxx11__enable_ifIXntsr11__is_scalarIT0_EE7__valueEvE6__typeET_S9_RKS6_(ptr noundef %0, ptr noundef %1, ptr noundef nonnull align 4 dereferenceable(4) %2) #5 comdat {
  %4 = alloca ptr, align 8
  %5 = alloca ptr, align 8
  %6 = alloca ptr, align 8
  store ptr %0, ptr %4, align 8
  store ptr %1, ptr %5, align 8
  store ptr %2, ptr %6, align 8
  br label %7

7:                                                ; preds = %15, %3
  %8 = load ptr, ptr %4, align 8
  %9 = load ptr, ptr %5, align 8
  %10 = icmp ne ptr %8, %9
  br i1 %10, label %11, label %18

11:                                               ; preds = %7
  %12 = load ptr, ptr %6, align 8
  %13 = load i32, ptr %12, align 4
  %14 = load ptr, ptr %4, align 8
  store i32 %13, ptr %14, align 4
  br label %15

15:                                               ; preds = %11
  %16 = load ptr, ptr %4, align 8
  %17 = getelementptr inbounds i32, ptr %16, i32 1
  store ptr %17, ptr %4, align 8
  br label %7, !llvm.loop !45

18:                                               ; preds = %7
  ret void
}

; Function Attrs: mustprogress nounwind uwtable
define linkonce_odr noundef ptr @_ZNSt14__array_traitsIN10open_spiel11tiny_bridge4SeatELm8EE6_S_ptrERA8_KS2_(ptr noundef nonnull align 4 dereferenceable(32) %0) #5 comdat align 2 {
  %2 = alloca ptr, align 8
  store ptr %0, ptr %2, align 8
  %3 = load ptr, ptr %2, align 8
  %4 = getelementptr inbounds [8 x i32], ptr %3, i64 0, i64 0
  ret ptr %4
}

; Function Attrs: mustprogress nounwind uwtable
define linkonce_odr noundef nonnull align 4 dereferenceable(4) ptr @_ZNSt14__array_traitsIN10open_spiel11tiny_bridge4SeatELm8EE6_S_refERA8_KS2_m(ptr noundef nonnull align 4 dereferenceable(32) %0, i64 noundef %1) #5 comdat align 2 {
  %3 = alloca ptr, align 8
  %4 = alloca i64, align 8
  store ptr %0, ptr %3, align 8
  store i64 %1, ptr %4, align 8
  %5 = load ptr, ptr %3, align 8
  %6 = load i64, ptr %4, align 8
  %7 = getelementptr inbounds [8 x i32], ptr %5, i64 0, i64 %6
  ret ptr %7
}

; Function Attrs: mustprogress nounwind uwtable
define linkonce_odr void @_ZNSt4pairIiiEC2IRiiTnNSt9enable_ifIXaaclsr5_PCCPE22_MoveConstructiblePairIT_T0_EEclsr5_PCCPE30_ImplicitlyMoveConvertiblePairIS4_S5_EEEbE4typeELb1EEEOS4_OS5_(ptr noundef nonnull align 4 dereferenceable(8) %0, ptr noundef nonnull align 4 dereferenceable(4) %1, ptr noundef nonnull align 4 dereferenceable(4) %2) unnamed_addr #5 comdat align 2 {
  %4 = alloca ptr, align 8
  %5 = alloca ptr, align 8
  %6 = alloca ptr, align 8
  store ptr %0, ptr %4, align 8
  store ptr %1, ptr %5, align 8
  store ptr %2, ptr %6, align 8
  %7 = load ptr, ptr %4, align 8
  %8 = getelementptr inbounds nuw %"struct.std::pair.6", ptr %7, i32 0, i32 0
  %9 = load ptr, ptr %5, align 8
  %10 = load i32, ptr %9, align 4
  store i32 %10, ptr %8, align 4
  %11 = getelementptr inbounds nuw %"struct.std::pair.6", ptr %7, i32 0, i32 1
  %12 = load ptr, ptr %6, align 8
  %13 = load i32, ptr %12, align 4
  store i32 %13, ptr %11, align 4
  ret void
}

; Function Attrs: mustprogress nounwind uwtable
define internal noundef i32 @_ZN10open_spiel11tiny_bridge12_GLOBAL__N_120CardsToChanceOutcomeEii(i32 noundef %0, i32 noundef %1) #5 {
  %3 = alloca i32, align 4
  %4 = alloca i32, align 4
  store i32 %0, ptr %3, align 4
  store i32 %1, ptr %4, align 4
  %5 = load i32, ptr %3, align 4
  %6 = load i32, ptr %3, align 4
  %7 = sub nsw i32 %6, 1
  %8 = mul nsw i32 %5, %7
  %9 = sdiv i32 %8, 2
  %10 = load i32, ptr %4, align 4
  %11 = add nsw i32 %9, %10
  ret i32 %11
}

; Function Attrs: mustprogress uwtable
define linkonce_odr void @_ZSt8__fill_aIPN10open_spiel11tiny_bridge4SeatES2_EvT_S4_RKT0_(ptr noundef %0, ptr noundef %1, ptr noundef nonnull align 4 dereferenceable(4) %2) #4 comdat {
  %4 = alloca ptr, align 8
  %5 = alloca ptr, align 8
  %6 = alloca ptr, align 8
  store ptr %0, ptr %4, align 8
  store ptr %1, ptr %5, align 8
  store ptr %2, ptr %6, align 8
  %7 = load ptr, ptr %4, align 8
  %8 = load ptr, ptr %5, align 8
  %9 = load ptr, ptr %6, align 8
  call void @_ZSt9__fill_a1IPN10open_spiel11tiny_bridge4SeatES2_EN9__gnu_cxx11__enable_ifIXntsr11__is_scalarIT0_EE7__valueEvE6__typeET_S9_RKS6_(ptr noundef %7, ptr noundef %8, ptr noundef nonnull align 4 dereferenceable(4) %9)
  ret void
}

; Function Attrs: mustprogress nounwind willreturn memory(none) uwtable
define linkonce_odr noundef ptr @_ZNSt5arrayIN10open_spiel11tiny_bridge4SeatELm8EE4dataEv(ptr noundef nonnull align 4 dereferenceable(32) %0) #11 comdat align 2 {
  %2 = alloca ptr, align 8
  store ptr %0, ptr %2, align 8
  %3 = load ptr, ptr %2, align 8
  %4 = getelementptr inbounds nuw %"struct.std::array.24", ptr %3, i32 0, i32 0
  %5 = call noundef ptr @_ZNSt14__array_traitsIN10open_spiel11tiny_bridge4SeatELm8EE6_S_ptrERA8_KS2_(ptr noundef nonnull align 4 dereferenceable(32) %4) #3
  ret ptr %5
}

; Function Attrs: mustprogress nounwind uwtable
define linkonce_odr noundef nonnull align 4 dereferenceable(4) ptr @_ZNSt5arrayIN10open_spiel11tiny_bridge4SeatELm8EEixEm(ptr noundef nonnull align 4 dereferenceable(32) %0, i64 noundef %1) #5 comdat align 2 {
  %3 = alloca ptr, align 8
  %4 = alloca i64, align 8
  store ptr %0, ptr %3, align 8
  store i64 %1, ptr %4, align 8
  %5 = load ptr, ptr %3, align 8
  %6 = getelementptr inbounds nuw %"struct.std::array.24", ptr %5, i32 0, i32 0
  %7 = load i64, ptr %4, align 8
  %8 = call noundef nonnull align 4 dereferenceable(4) ptr @_ZNSt14__array_traitsIN10open_spiel11tiny_bridge4SeatELm8EE6_S_refERA8_KS2_m(ptr noundef nonnull align 4 dereferenceable(32) %6, i64 noundef %7) #3
  ret ptr %8
}

; Function Attrs: mustprogress uwtable
define internal i64 @_ZN10open_spiel11tiny_bridge12_GLOBAL__N_120ChanceOutcomeToCardsEi(i32 noundef %0) #4 {
  %2 = alloca %"struct.std::pair.6", align 4
  %3 = alloca i32, align 4
  %4 = alloca i32, align 4
  %5 = alloca i32, align 4
  store i32 %0, ptr %3, align 4
  store i32 1, ptr %4, align 4
  br label %6

6:                                                ; preds = %12, %1
  %7 = load i32, ptr %4, align 4
  %8 = add nsw i32 %7, 1
  %9 = call noundef i32 @_ZN10open_spiel11tiny_bridge12_GLOBAL__N_120CardsToChanceOutcomeEii(i32 noundef %8, i32 noundef 0)
  %10 = load i32, ptr %3, align 4
  %11 = icmp sle i32 %9, %10
  br i1 %11, label %12, label %15

12:                                               ; preds = %6
  %13 = load i32, ptr %4, align 4
  %14 = add nsw i32 %13, 1
  store i32 %14, ptr %4, align 4
  br label %6, !llvm.loop !4

15:                                               ; preds = %6
  %16 = load i32, ptr %3, align 4
  %17 = load i32, ptr %4, align 4
  %18 = call noundef i32 @_ZN10open_spiel11tiny_bridge12_GLOBAL__N_120CardsToChanceOutcomeEii(i32 noundef %17, i32 noundef 0)
  %19 = sub nsw i32 %16, %18
  store i32 %19, ptr %5, align 4
  call void @_ZNSt4pairIiiEC2IRiiTnNSt9enable_ifIXaaclsr5_PCCPE22_MoveConstructiblePairIT_T0_EEclsr5_PCCPE30_ImplicitlyMoveConvertiblePairIS4_S5_EEEbE4typeELb1EEEOS4_OS5_(ptr noundef nonnull align 4 dereferenceable(8) %2, ptr noundef nonnull align 4 dereferenceable(4) %4, ptr noundef nonnull align 4 dereferenceable(4) %5)
  %20 = load i64, ptr %2, align 4
  ret i64 %20
}

; Function Attrs: mustprogress uwtable
define linkonce_odr void @_ZSt4fillIPN10open_spiel11tiny_bridge4SeatES2_EvT_S4_RKT0_(ptr noundef %0, ptr noundef %1, ptr noundef nonnull align 4 dereferenceable(4) %2) #4 comdat {
  %4 = alloca ptr, align 8
  %5 = alloca ptr, align 8
  %6 = alloca ptr, align 8
  store ptr %0, ptr %4, align 8
  store ptr %1, ptr %5, align 8
  store ptr %2, ptr %6, align 8
  %7 = load ptr, ptr %4, align 8
  %8 = load ptr, ptr %5, align 8
  %9 = load ptr, ptr %6, align 8
  call void @_ZSt8__fill_aIPN10open_spiel11tiny_bridge4SeatES2_EvT_S4_RKT0_(ptr noundef %7, ptr noundef %8, ptr noundef nonnull align 4 dereferenceable(4) %9)
  ret void
}

; Function Attrs: mustprogress nounwind willreturn memory(none) uwtable
define linkonce_odr noundef ptr @_ZNSt5arrayIN10open_spiel11tiny_bridge4SeatELm8EE3endEv(ptr noundef nonnull align 4 dereferenceable(32) %0) #11 comdat align 2 {
  %2 = alloca ptr, align 8
  store ptr %0, ptr %2, align 8
  %3 = load ptr, ptr %2, align 8
  %4 = call noundef ptr @_ZNSt5arrayIN10open_spiel11tiny_bridge4SeatELm8EE4dataEv(ptr noundef nonnull align 4 dereferenceable(32) %3) #20
  %5 = getelementptr inbounds i32, ptr %4, i64 8
  ret ptr %5
}

; Function Attrs: mustprogress nounwind willreturn memory(none) uwtable
define linkonce_odr noundef ptr @_ZNSt5arrayIN10open_spiel11tiny_bridge4SeatELm8EE5beginEv(ptr noundef nonnull align 4 dereferenceable(32) %0) #11 comdat align 2 {
  %2 = alloca ptr, align 8
  store ptr %0, ptr %2, align 8
  %3 = load ptr, ptr %2, align 8
  %4 = call noundef ptr @_ZNSt5arrayIN10open_spiel11tiny_bridge4SeatELm8EE4dataEv(ptr noundef nonnull align 4 dereferenceable(32) %3) #20
  ret ptr %4
}

; Function Attrs: mustprogress uwtable
define noundef double @_ZN10open_spiel11tiny_bridge9Score_2p_EllRKNS0_22TinyBridgeAuctionState12AuctionStateE(i64 noundef %0, i64 noundef %1, ptr noundef nonnull align 8 dereferenceable(24) %2) #4 {
  %4 = alloca double, align 8
  %5 = alloca i64, align 8
  %6 = alloca i64, align 8
  %7 = alloca ptr, align 8
  %8 = alloca double, align 8
  %9 = alloca double, align 8
  %10 = alloca %"struct.std::array.24", align 4
  %11 = alloca i32, align 4
  %12 = alloca %"struct.std::pair.6", align 4
  %13 = alloca %"struct.std::pair.6", align 4
  %14 = alloca %"struct.std::array.24", align 4
  %15 = alloca i32, align 4
  %16 = alloca i32, align 4
  %17 = alloca i32, align 4
  %18 = alloca i32, align 4
  %19 = alloca %"struct.std::array.24", align 8
  store i64 %0, ptr %5, align 8
  store i64 %1, ptr %6, align 8
  store ptr %2, ptr %7, align 8
  %20 = load ptr, ptr %7, align 8
  %21 = getelementptr inbounds nuw %"struct.open_spiel::tiny_bridge::TinyBridgeAuctionState::AuctionState", ptr %20, i32 0, i32 0
  %22 = load i64, ptr %21, align 8
  %23 = icmp eq i64 %22, 0
  br i1 %23, label %24, label %25

24:                                               ; preds = %3
  store double 0.000000e+00, ptr %4, align 8
  br label %112

25:                                               ; preds = %3
  store double 0x3FC5555555555555, ptr %8, align 8
  store double 0.000000e+00, ptr %9, align 8
  %26 = call noundef ptr @_ZNSt5arrayIN10open_spiel11tiny_bridge4SeatELm8EE5beginEv(ptr noundef nonnull align 4 dereferenceable(32) %10) #20
  %27 = call noundef ptr @_ZNSt5arrayIN10open_spiel11tiny_bridge4SeatELm8EE3endEv(ptr noundef nonnull align 4 dereferenceable(32) %10) #20
  store i32 -1, ptr %11, align 4
  call void @_ZSt4fillIPN10open_spiel11tiny_bridge4SeatES2_EvT_S4_RKT0_(ptr noundef %26, ptr noundef %27, ptr noundef nonnull align 4 dereferenceable(4) %11)
  %28 = load i64, ptr %5, align 8
  %29 = trunc i64 %28 to i32
  %30 = call i64 @_ZN10open_spiel11tiny_bridge12_GLOBAL__N_120ChanceOutcomeToCardsEi(i32 noundef %29)
  store i64 %30, ptr %12, align 4
  %31 = getelementptr inbounds nuw %"struct.std::pair.6", ptr %12, i32 0, i32 0
  %32 = load i32, ptr %31, align 4
  %33 = sext i32 %32 to i64
  %34 = call noundef nonnull align 4 dereferenceable(4) ptr @_ZNSt5arrayIN10open_spiel11tiny_bridge4SeatELm8EEixEm(ptr noundef nonnull align 4 dereferenceable(32) %10, i64 noundef %33) #3
  store i32 0, ptr %34, align 4
  %35 = getelementptr inbounds nuw %"struct.std::pair.6", ptr %12, i32 0, i32 1
  %36 = load i32, ptr %35, align 4
  %37 = sext i32 %36 to i64
  %38 = call noundef nonnull align 4 dereferenceable(4) ptr @_ZNSt5arrayIN10open_spiel11tiny_bridge4SeatELm8EEixEm(ptr noundef nonnull align 4 dereferenceable(32) %10, i64 noundef %37) #3
  store i32 0, ptr %38, align 4
  %39 = load i64, ptr %6, align 8
  %40 = trunc i64 %39 to i32
  %41 = call i64 @_ZN10open_spiel11tiny_bridge12_GLOBAL__N_120ChanceOutcomeToCardsEi(i32 noundef %40)
  store i64 %41, ptr %13, align 4
  %42 = getelementptr inbounds nuw %"struct.std::pair.6", ptr %13, i32 0, i32 0
  %43 = load i32, ptr %42, align 4
  %44 = sext i32 %43 to i64
  %45 = call noundef nonnull align 4 dereferenceable(4) ptr @_ZNSt5arrayIN10open_spiel11tiny_bridge4SeatELm8EEixEm(ptr noundef nonnull align 4 dereferenceable(32) %10, i64 noundef %44) #3
  store i32 2, ptr %45, align 4
  %46 = getelementptr inbounds nuw %"struct.std::pair.6", ptr %13, i32 0, i32 1
  %47 = load i32, ptr %46, align 4
  %48 = sext i32 %47 to i64
  %49 = call noundef nonnull align 4 dereferenceable(4) ptr @_ZNSt5arrayIN10open_spiel11tiny_bridge4SeatELm8EEixEm(ptr noundef nonnull align 4 dereferenceable(32) %10, i64 noundef %48) #3
  store i32 2, ptr %49, align 4
  store i32 0, ptr %15, align 4
  br label %50

50:                                               ; preds = %107, %25
  %51 = load i32, ptr %15, align 4
  %52 = icmp slt i32 %51, 3
  br i1 %52, label %53, label %110

53:                                               ; preds = %50
  %54 = load i32, ptr %15, align 4
  %55 = add nsw i32 %54, 1
  store i32 %55, ptr %16, align 4
  br label %56

56:                                               ; preds = %103, %53
  %57 = load i32, ptr %16, align 4
  %58 = icmp slt i32 %57, 4
  br i1 %58, label %59, label %106

59:                                               ; preds = %56
  store i32 0, ptr %17, align 4
  store i32 0, ptr %18, align 4
  br label %60

60:                                               ; preds = %94, %59
  %61 = load i32, ptr %18, align 4
  %62 = icmp slt i32 %61, 8
  br i1 %62, label %63, label %97

63:                                               ; preds = %60
  %64 = load i32, ptr %18, align 4
  %65 = sext i32 %64 to i64
  %66 = call noundef nonnull align 4 dereferenceable(4) ptr @_ZNSt5arrayIN10open_spiel11tiny_bridge4SeatELm8EEixEm(ptr noundef nonnull align 4 dereferenceable(32) %10, i64 noundef %65) #3
  %67 = load i32, ptr %66, align 4
  %68 = icmp eq i32 %67, -1
  br i1 %68, label %69, label %85

69:                                               ; preds = %63
  %70 = load i32, ptr %17, align 4
  %71 = load i32, ptr %15, align 4
  %72 = icmp eq i32 %70, %71
  br i1 %72, label %77, label %73

73:                                               ; preds = %69
  %74 = load i32, ptr %17, align 4
  %75 = load i32, ptr %16, align 4
  %76 = icmp eq i32 %74, %75
  br label %77

77:                                               ; preds = %73, %69
  %78 = phi i1 [ true, %69 ], [ %76, %73 ]
  %79 = select i1 %78, i32 1, i32 3
  %80 = load i32, ptr %18, align 4
  %81 = sext i32 %80 to i64
  %82 = call noundef nonnull align 4 dereferenceable(4) ptr @_ZNSt5arrayIN10open_spiel11tiny_bridge4SeatELm8EEixEm(ptr noundef nonnull align 4 dereferenceable(32) %14, i64 noundef %81) #3
  store i32 %79, ptr %82, align 4
  %83 = load i32, ptr %17, align 4
  %84 = add nsw i32 %83, 1
  store i32 %84, ptr %17, align 4
  br label %93

85:                                               ; preds = %63
  %86 = load i32, ptr %18, align 4
  %87 = sext i32 %86 to i64
  %88 = call noundef nonnull align 4 dereferenceable(4) ptr @_ZNSt5arrayIN10open_spiel11tiny_bridge4SeatELm8EEixEm(ptr noundef nonnull align 4 dereferenceable(32) %10, i64 noundef %87) #3
  %89 = load i32, ptr %88, align 4
  %90 = load i32, ptr %18, align 4
  %91 = sext i32 %90 to i64
  %92 = call noundef nonnull align 4 dereferenceable(4) ptr @_ZNSt5arrayIN10open_spiel11tiny_bridge4SeatELm8EEixEm(ptr noundef nonnull align 4 dereferenceable(32) %14, i64 noundef %91) #3
  store i32 %89, ptr %92, align 4
  br label %93

93:                                               ; preds = %85, %77
  br label %94

94:                                               ; preds = %93
  %95 = load i32, ptr %18, align 4
  %96 = add nsw i32 %95, 1
  store i32 %96, ptr %18, align 4
  br label %60, !llvm.loop !9

97:                                               ; preds = %60
  call void @llvm.memcpy.p0.p0.i64(ptr align 4 %19, ptr align 4 %14, i64 32, i1 false)
  %98 = load ptr, ptr %7, align 8
  %99 = call noundef i32 @_ZN10open_spiel11tiny_bridge8Score_p0ESt5arrayINS0_4SeatELm8EERKNS0_22TinyBridgeAuctionState12AuctionStateE(ptr noundef byval(%"struct.std::array.24") align 8 %19, ptr noundef nonnull align 8 dereferenceable(24) %98)
  %100 = sitofp i32 %99 to double
  %101 = load double, ptr %9, align 8
  %102 = call double @llvm.fmuladd.f64(double %100, double 0x3FC5555555555555, double %101)
  store double %102, ptr %9, align 8
  br label %103

103:                                              ; preds = %97
  %104 = load i32, ptr %16, align 4
  %105 = add nsw i32 %104, 1
  store i32 %105, ptr %16, align 4
  br label %56, !llvm.loop !10

106:                                              ; preds = %56
  br label %107

107:                                              ; preds = %106
  %108 = load i32, ptr %15, align 4
  %109 = add nsw i32 %108, 1
  store i32 %109, ptr %15, align 4
  br label %50, !llvm.loop !11

110:                                              ; preds = %50
  %111 = load double, ptr %9, align 8
  store double %111, ptr %4, align 8
  br label %112

112:                                              ; preds = %110, %24
  %113 = load double, ptr %4, align 8
  ret double %113
}