; Function Attrs: mustprogress uwtable
define noundef double @_ZN10open_spiel11tiny_bridge9Score_2p_EllRKNS0_22TinyBridgeAuctionState12AuctionStateE(i64 noundef %0, i64 noundef %1, ptr nocapture noundef nonnull readonly align 8 dereferenceable(24) %2) local_unnamed_addr #3 {
  %4 = alloca %"struct.std::array.24", align 4
  %5 = alloca %"struct.std::array.24", align 8
  %6 = load i64, ptr %2, align 8
  %7 = icmp eq i64 %6, 0
  br i1 %7, label %.loopexit41, label %.lr.ph.i.i.i.preheader

.lr.ph.i.i.i.preheader:                           ; preds = %3
  call void @llvm.memset.p0.i64(ptr noundef nonnull align 4 dereferenceable(32) %4, i8 -1, i64 32, i1 false)
  %8 = trunc i64 %0 to i32
  br label %9

9:                                                ; preds = %9, %.lr.ph.i.i.i.preheader
  %storemerge.i = phi i32 [ 1, %.lr.ph.i.i.i.preheader ], [ %10, %9 ]
  %10 = add nuw nsw i32 %storemerge.i, 1
  %11 = mul nuw nsw i32 %10, %storemerge.i
  %12 = lshr i32 %11, 1
  %.not.i = icmp sgt i32 %12, %8
  br i1 %.not.i, label %_ZN10open_spiel11tiny_bridge12_GLOBAL__N_120ChanceOutcomeToCardsEi.exit, label %9, !llvm.loop !4

_ZN10open_spiel11tiny_bridge12_GLOBAL__N_120ChanceOutcomeToCardsEi.exit: ; preds = %9
  %13 = add nsw i32 %storemerge.i, -1
  %14 = mul nsw i32 %13, %storemerge.i
  %.neg.i = sdiv i32 %14, -2
  %15 = add i32 %.neg.i, %8
  %.sroa.0.0.insert.ext.i = zext nneg i32 %storemerge.i to i64
  %16 = getelementptr inbounds [8 x i32], ptr %4, i64 0, i64 %.sroa.0.0.insert.ext.i
  store i32 0, ptr %16, align 4
  %17 = sext i32 %15 to i64
  %18 = getelementptr inbounds [8 x i32], ptr %4, i64 0, i64 %17
  store i32 0, ptr %18, align 4
  %19 = trunc i64 %1 to i32
  br label %20

20:                                               ; preds = %20, %_ZN10open_spiel11tiny_bridge12_GLOBAL__N_120ChanceOutcomeToCardsEi.exit
  %storemerge.i33 = phi i32 [ 1, %_ZN10open_spiel11tiny_bridge12_GLOBAL__N_120ChanceOutcomeToCardsEi.exit ], [ %21, %20 ]
  %21 = add nuw nsw i32 %storemerge.i33, 1
  %22 = mul nuw nsw i32 %21, %storemerge.i33
  %23 = lshr i32 %22, 1
  %.not.i34 = icmp sgt i32 %23, %19
  br i1 %.not.i34, label %_ZN10open_spiel11tiny_bridge12_GLOBAL__N_120ChanceOutcomeToCardsEi.exit40, label %20, !llvm.loop !4

_ZN10open_spiel11tiny_bridge12_GLOBAL__N_120ChanceOutcomeToCardsEi.exit40: ; preds = %20
  %24 = add nsw i32 %storemerge.i33, -1
  %25 = mul nsw i32 %24, %storemerge.i33
  %.neg.i35 = sdiv i32 %25, -2
  %26 = add i32 %.neg.i35, %19
  %.sroa.0.0.insert.ext.i38 = zext nneg i32 %storemerge.i33 to i64
  %27 = getelementptr inbounds [8 x i32], ptr %4, i64 0, i64 %.sroa.0.0.insert.ext.i38
  store i32 2, ptr %27, align 4
  %28 = sext i32 %26 to i64
  %29 = getelementptr inbounds [8 x i32], ptr %4, i64 0, i64 %28
  store i32 2, ptr %29, align 4
  br label %.preheader.preheader

.loopexit:                                        ; preds = %43
  %exitcond50.not = icmp eq i32 %30, 3
  br i1 %exitcond50.not, label %.loopexit41, label %.preheader.preheader, !llvm.loop !27

.preheader.preheader:                             ; preds = %.loopexit, %_ZN10open_spiel11tiny_bridge12_GLOBAL__N_120ChanceOutcomeToCardsEi.exit40
  %.02647 = phi i32 [ 0, %_ZN10open_spiel11tiny_bridge12_GLOBAL__N_120ChanceOutcomeToCardsEi.exit40 ], [ %30, %.loopexit ]
  %.02846 = phi double [ 0.000000e+00, %_ZN10open_spiel11tiny_bridge12_GLOBAL__N_120ChanceOutcomeToCardsEi.exit40 ], [ %46, %.loopexit ]
  %30 = add nuw nsw i32 %.02647, 1
  br label %.preheader

.preheader:                                       ; preds = %.preheader.preheader, %43
  %.02545 = phi i32 [ %47, %43 ], [ %30, %.preheader.preheader ]
  %.12944 = phi double [ %46, %43 ], [ %.02846, %.preheader.preheader ]
  br label %31

31:                                               ; preds = %.preheader, %41
  %indvars.iv = phi i64 [ 0, %.preheader ], [ %indvars.iv.next, %41 ]
  %.02442 = phi i32 [ 0, %.preheader ], [ %.1, %41 ]
  %32 = getelementptr inbounds [8 x i32], ptr %4, i64 0, i64 %indvars.iv
  %33 = load i32, ptr %32, align 4
  %34 = icmp eq i32 %33, -1
  br i1 %34, label %35, label %41

35:                                               ; preds = %31
  %36 = icmp eq i32 %.02442, %.02647
  %37 = icmp eq i32 %.02442, %.02545
  %38 = or i1 %36, %37
  %39 = select i1 %38, i32 1, i32 3
  %40 = add nsw i32 %.02442, 1
  br label %41

41:                                               ; preds = %31, %35
  %.sink = phi i32 [ %39, %35 ], [ %33, %31 ]
  %.1 = phi i32 [ %40, %35 ], [ %.02442, %31 ]
  %42 = getelementptr inbounds [8 x i32], ptr %5, i64 0, i64 %indvars.iv
  store i32 %.sink, ptr %42, align 4
  %indvars.iv.next = add nuw nsw i64 %indvars.iv, 1
  %exitcond.not = icmp eq i64 %indvars.iv.next, 8
  br i1 %exitcond.not, label %43, label %31, !llvm.loop !28

43:                                               ; preds = %41
  %44 = tail call noundef i32 @_ZN10open_spiel11tiny_bridge8Score_p0ESt5arrayINS0_4SeatELm8EERKNS0_22TinyBridgeAuctionState12AuctionStateE(ptr noundef nonnull byval(%"struct.std::array.24") align 8 %5, ptr noundef nonnull align 8 dereferenceable(24) %2)
  %45 = sitofp i32 %44 to double
  %46 = tail call double @llvm.fmuladd.f64(double %45, double 0x3FC5555555555555, double %.12944)
  %47 = add nuw nsw i32 %.02545, 1
  %exitcond49.not = icmp eq i32 %47, 4
  br i1 %exitcond49.not, label %.loopexit, label %.preheader, !llvm.loop !29

.loopexit41:                                      ; preds = %.loopexit, %3
  %.027 = phi double [ 0.000000e+00, %3 ], [ %46, %.loopexit ]
  ret double %.027
}